; Function Attrs: mustprogress uwtable
define noundef ptr @uprv_decNumberMin_77(ptr noundef returned %0, ptr noundef %1, ptr noundef %2, ptr noundef %3) local_unnamed_addr #3 {
  %5 = alloca i32, align 4
  call void @llvm.lifetime.start.p0(i64 4, ptr nonnull %5) #16
  store i32 0, ptr %5, align 4, !tbaa !14
  %6 = call fastcc noundef ptr @_ZL12decCompareOpP9decNumberPKS_S2_P10decContexthPj(ptr noundef %0, ptr noundef %1, ptr noundef %2, ptr noundef %3, i8 noundef zeroext 3, ptr noundef %5)
  %7 = load i32, ptr %5, align 4, !tbaa !14
  %.not = icmp eq i32 %7, 0
  br i1 %.not, label %19, label %8

8:                                                ; preds = %4
  %9 = and i32 %7, 221
  %.not.i = icmp eq i32 %9, 0
  br i1 %.not.i, label %_ZL9decStatusP9decNumberjP10decContext.exit, label %10

10:                                               ; preds = %8
  %11 = and i32 %7, 1073741824
  %.not6.i = icmp eq i32 %11, 0
  br i1 %.not6.i, label %14, label %12

12:                                               ; preds = %10
  %13 = and i32 %7, -1073741825
  br label %_ZL9decStatusP9decNumberjP10decContext.exit

14:                                               ; preds = %10
  %15 = getelementptr inbounds nuw i8, ptr %0, i64 8
  %16 = getelementptr inbounds nuw i8, ptr %0, i64 4
  store i32 0, ptr %16, align 4, !tbaa !8
  store i32 1, ptr %0, align 4, !tbaa !9
  %17 = getelementptr inbounds nuw i8, ptr %0, i64 9
  store i8 0, ptr %17, align 1, !tbaa !10
  store i8 32, ptr %15, align 4, !tbaa !3
  br label %_ZL9decStatusP9decNumberjP10decContext.exit

_ZL9decStatusP9decNumberjP10decContext.exit:      ; preds = %8, %12, %14
  %.0.i = phi i32 [ %13, %12 ], [ %7, %14 ], [ %7, %8 ]
  %18 = tail call ptr @uprv_decContextSetStatus_77(ptr noundef %3, i32 noundef %.0.i)
  br label %19

19:                                               ; preds = %_ZL9decStatusP9decNumberjP10decContext.exit, %4
  call void @llvm.lifetime.end.p0(i64 4, ptr nonnull %5) #16
  ret ptr %0
}